target datalayout = "e-m:e-p270:32:32-p271:32:32-p272:64:64-i64:64-i128:128-f80:128-n8:16:32:64-S128"
target triple = "x86_64-pc-linux-gnu"

%struct.pmix_mca_base_framework_t = type { ptr, ptr, ptr, ptr, ptr, ptr, i32, i32, ptr, ptr, i32, i32, %struct.pmix_list_t, %struct.pmix_list_t }
%struct.pmix_list_t = type { %struct.pmix_object_t, %struct.pmix_list_item_t, i64 }
%struct.pmix_object_t = type { %union.pthread_mutex_t, ptr, i32, %struct.pmix_tma }
%union.pthread_mutex_t = type { %struct.__pthread_mutex_s }
%struct.__pthread_mutex_s = type { i32, i32, i32, i32, i32, i16, i16, %struct.__pthread_internal_list }
%struct.__pthread_internal_list = type { ptr, ptr }
%struct.pmix_tma = type { ptr, ptr, ptr, ptr, ptr, ptr, ptr, ptr }
%struct.pmix_list_item_t = type { %struct.pmix_object_t, ptr, ptr, i32 }
%struct.pmix_output_desc_t = type { i8, i8, i32, i8, i32, ptr, ptr, i32, ptr, i32, i8, i8, i8, i8, ptr, i32, i32 }
%struct.prte_process_info_t = type { %struct.pmix_proc, %struct.pmix_proc, ptr, %struct.pmix_proc, i32, i32, i32, ptr, ptr, i32, i8, ptr, i16, ptr, ptr, i8, ptr, i8 }
%struct.pmix_proc = type { [256 x i8], i32 }
%struct.prte_state_base_module_1_0_0_t = type { ptr, ptr, ptr, ptr, ptr, ptr, ptr, ptr, ptr, ptr }
%struct.pmix_mutex_t = type { %struct.pmix_object_t, %union.pthread_mutex_t }
%union.pthread_cond_t = type { %struct.__pthread_cond_s }
%struct.__pthread_cond_s = type { %union.__atomic_wide_counter, %union.__atomic_wide_counter, [2 x i32], [2 x i32], i32, i32, [2 x i32] }
%union.__atomic_wide_counter = type { i64 }
%struct.pmix_data_buffer = type { ptr, ptr, ptr, i64, i64 }
%struct.prte_odls_jcaddy_t = type { ptr, ptr, i64, %struct.prte_pmix_lock_t }
%struct.prte_pmix_lock_t = type { %struct.pmix_mutex_t, %union.pthread_cond_t, i8, i32, ptr }
%struct.pmix_byte_object = type { ptr, i64 }
%struct.prte_job_t = type { %struct.pmix_list_item_t, i32, ptr, ptr, [256 x i8], ptr, i32, i32, ptr, ptr, i32, i32, i32, i32, ptr, ptr, ptr, i32, i32, i32, i32, i32, i32, i32, %struct.pmix_proc, i32, i16, %struct.pmix_list_t, %struct.pmix_data_buffer, %struct.pmix_list_t, [256 x i8], i32, ptr, %struct.pmix_cli_result_t }
%struct.pmix_cli_result_t = type { %struct.pmix_object_t, %struct.pmix_list_t, ptr }
%struct.timeval = type { i64, i64 }

@.str.1 = private unnamed_addr constant [29 x i8] c"base/odls_base_default_fns.c\00", align 1
@.str.2 = private unnamed_addr constant [37 x i8] c"PMIX ERROR: %s in file %s at line %d\00", align 1
@pmix_output_info = external global [0 x %struct.pmix_output_desc_t], align 8
@prte_process_info = external global %struct.prte_process_info_t, align 8
@.str.18 = private unnamed_addr constant [5 x i8] c"NULL\00", align 1
@prte_state_base_framework = external global %struct.pmix_mca_base_framework_t, align 8
@.str.26 = private unnamed_addr constant [42 x i8] c"%s [%f] ACTIVATE JOB %s STATE %s AT %s:%d\00", align 1
@prte_state = external global %struct.prte_state_base_module_1_0_0_t, align 8

; Function Attrs: inlinehint nounwind uwtable
define internal void @pmix_mutex_unlock(ptr noundef %0) #4 {
  %2 = alloca ptr, align 8
  store ptr %0, ptr %2, align 8, !tbaa !107
  %3 = load ptr, ptr %2, align 8, !tbaa !107
  %4 = getelementptr inbounds nuw %struct.pmix_mutex_t, ptr %3, i32 0, i32 1
  %5 = call i32 @pthread_mutex_unlock(ptr noundef %4) #13
  ret void
}

; Function Attrs: inlinehint nounwind uwtable
define internal void @pmix_atomic_wmb() #4 {
  fence release
  ret void
}

; Function Attrs: inlinehint nounwind uwtable
define internal void @pmix_mutex_lock(ptr noundef %0) #4 {
  %2 = alloca ptr, align 8
  store ptr %0, ptr %2, align 8, !tbaa !107
  %3 = load ptr, ptr %2, align 8, !tbaa !107
  %4 = getelementptr inbounds nuw %struct.pmix_mutex_t, ptr %3, i32 0, i32 1
  %5 = call i32 @pthread_mutex_lock(ptr noundef %4) #13
  ret void
}

; Function Attrs: nounwind uwtable
define internal void @setup_cbfunc(i32 noundef %0, ptr noundef %1, i64 noundef %2, ptr noundef %3, ptr noundef %4, ptr noundef %5) #0 {
  %7 = alloca i32, align 4
  %8 = alloca ptr, align 8
  %9 = alloca i64, align 8
  %10 = alloca ptr, align 8
  %11 = alloca ptr, align 8
  %12 = alloca ptr, align 8
  %13 = alloca ptr, align 8
  %14 = alloca ptr, align 8
  %15 = alloca %struct.pmix_data_buffer, align 8
  %16 = alloca %struct.pmix_byte_object, align 8
  %17 = alloca i32, align 4
  %18 = alloca ptr, align 8
  %19 = alloca double, align 8
  %20 = alloca %struct.timeval, align 8
  store i32 %0, ptr %7, align 4, !tbaa !31
  store ptr %1, ptr %8, align 8, !tbaa !92
  store i64 %2, ptr %9, align 8, !tbaa !93
  store ptr %3, ptr %10, align 8, !tbaa !10
  store ptr %4, ptr %11, align 8, !tbaa !10
  store ptr %5, ptr %12, align 8, !tbaa !10
  call void @llvm.lifetime.start.p0(i64 8, ptr %13) #13
  %21 = load ptr, ptr %10, align 8, !tbaa !10
  store ptr %21, ptr %13, align 8, !tbaa !10
  call void @llvm.lifetime.start.p0(i64 8, ptr %14) #13
  %22 = load ptr, ptr %13, align 8, !tbaa !10
  %23 = getelementptr inbounds nuw %struct.prte_odls_jcaddy_t, ptr %22, i32 0, i32 0
  %24 = load ptr, ptr %23, align 8, !tbaa !65
  store ptr %24, ptr %14, align 8, !tbaa !10
  call void @llvm.lifetime.start.p0(i64 40, ptr %15) #13
  call void @llvm.lifetime.start.p0(i64 16, ptr %16) #13
  call void @llvm.lifetime.start.p0(i64 4, ptr %17) #13
  store i32 0, ptr %17, align 4, !tbaa !31
  %25 = load ptr, ptr %13, align 8, !tbaa !10
  %26 = getelementptr inbounds nuw %struct.prte_odls_jcaddy_t, ptr %25, i32 0, i32 1
  %27 = load ptr, ptr %26, align 8, !tbaa !55
  %28 = icmp ne ptr null, %27
  br i1 %28, label %29, label %41

29:                                               ; preds = %6
  br label %30

30:                                               ; preds = %29
  %31 = load ptr, ptr %13, align 8, !tbaa !10
  %32 = getelementptr inbounds nuw %struct.prte_odls_jcaddy_t, ptr %31, i32 0, i32 1
  %33 = load ptr, ptr %32, align 8, !tbaa !55
  %34 = load ptr, ptr %13, align 8, !tbaa !10
  %35 = getelementptr inbounds nuw %struct.prte_odls_jcaddy_t, ptr %34, i32 0, i32 2
  %36 = load i64, ptr %35, align 8, !tbaa !60
  call void @PMIx_Info_free(ptr noundef %33, i64 noundef %36)
  %37 = load ptr, ptr %13, align 8, !tbaa !10
  %38 = getelementptr inbounds nuw %struct.prte_odls_jcaddy_t, ptr %37, i32 0, i32 1
  store ptr null, ptr %38, align 8, !tbaa !55
  br label %39

39:                                               ; preds = %30
  br label %40

40:                                               ; preds = %39
  br label %41

41:                                               ; preds = %40, %6
  call void @PMIx_Byte_object_construct(ptr noundef %16)
  %42 = load ptr, ptr %8, align 8, !tbaa !92
  %43 = icmp ne ptr null, %42
  br i1 %43, label %44, label %88

44:                                               ; preds = %41
  call void @PMIx_Data_buffer_construct(ptr noundef %15)
  %45 = call i32 @PMIx_Data_pack(ptr noundef null, ptr noundef %15, ptr noundef %9, i32 noundef 1, i16 noundef zeroext 4)
  store i32 %45, ptr %17, align 4, !tbaa !31
  %46 = icmp ne i32 0, %45
  br i1 %46, label %47, label %57

47:                                               ; preds = %44
  br label %48

48:                                               ; preds = %47
  %49 = load i32, ptr %17, align 4, !tbaa !31
  %50 = icmp ne i32 -2, %49
  br i1 %50, label %51, label %54

51:                                               ; preds = %48
  %52 = load i32, ptr %17, align 4, !tbaa !31
  %53 = call ptr @PMIx_Error_string(i32 noundef %52)
  call void (i32, ptr, ...) @pmix_output(i32 noundef 0, ptr noundef @.str.2, ptr noundef %53, ptr noundef @.str.1, i32 noundef 116)
  br label %54

54:                                               ; preds = %51, %48
  br label %55

55:                                               ; preds = %54
  br label %56

56:                                               ; preds = %55
  call void @PMIx_Data_buffer_destruct(ptr noundef %15)
  br label %105

57:                                               ; preds = %44
  %58 = load ptr, ptr %8, align 8, !tbaa !92
  %59 = load i64, ptr %9, align 8, !tbaa !93
  %60 = trunc i64 %59 to i32
  %61 = call i32 @PMIx_Data_pack(ptr noundef null, ptr noundef %15, ptr noundef %58, i32 noundef %60, i16 noundef zeroext 24)
  store i32 %61, ptr %17, align 4, !tbaa !31
  %62 = icmp ne i32 0, %61
  br i1 %62, label %63, label %73

63:                                               ; preds = %57
  br label %64

64:                                               ; preds = %63
  %65 = load i32, ptr %17, align 4, !tbaa !31
  %66 = icmp ne i32 -2, %65
  br i1 %66, label %67, label %70

67:                                               ; preds = %64
  %68 = load i32, ptr %17, align 4, !tbaa !31
  %69 = call ptr @PMIx_Error_string(i32 noundef %68)
  call void (i32, ptr, ...) @pmix_output(i32 noundef 0, ptr noundef @.str.2, ptr noundef %69, ptr noundef @.str.1, i32 noundef 121)
  br label %70

70:                                               ; preds = %67, %64
  br label %71

71:                                               ; preds = %70
  br label %72

72:                                               ; preds = %71
  call void @PMIx_Data_buffer_destruct(ptr noundef %15)
  br label %105

73:                                               ; preds = %57
  %74 = call i32 @PMIx_Data_unload(ptr noundef %15, ptr noundef %16)
  store i32 %74, ptr %17, align 4, !tbaa !31
  %75 = load i32, ptr %17, align 4, !tbaa !31
  %76 = icmp ne i32 0, %75
  br i1 %76, label %77, label %87

77:                                               ; preds = %73
  br label %78

78:                                               ; preds = %77
  %79 = load i32, ptr %17, align 4, !tbaa !31
  %80 = icmp ne i32 -2, %79
  br i1 %80, label %81, label %84

81:                                               ; preds = %78
  %82 = load i32, ptr %17, align 4, !tbaa !31
  %83 = call ptr @PMIx_Error_string(i32 noundef %82)
  call void (i32, ptr, ...) @pmix_output(i32 noundef 0, ptr noundef @.str.2, ptr noundef %83, ptr noundef @.str.1, i32 noundef 128)
  br label %84

84:                                               ; preds = %81, %78
  br label %85

85:                                               ; preds = %84
  br label %86

86:                                               ; preds = %85
  br label %87

87:                                               ; preds = %86, %73
  br label %88

88:                                               ; preds = %87, %41
  %89 = load ptr, ptr %14, align 8, !tbaa !10
  %90 = getelementptr inbounds nuw %struct.prte_job_t, ptr %89, i32 0, i32 28
  %91 = call i32 @PMIx_Data_pack(ptr noundef null, ptr noundef %90, ptr noundef %16, i32 noundef 1, i16 noundef zeroext 27)
  store i32 %91, ptr %17, align 4, !tbaa !31
  %92 = load i32, ptr %17, align 4, !tbaa !31
  %93 = icmp ne i32 0, %92
  br i1 %93, label %94, label %104

94:                                               ; preds = %88
  br label %95

95:                                               ; preds = %94
  %96 = load i32, ptr %17, align 4, !tbaa !31
  %97 = icmp ne i32 -2, %96
  br i1 %97, label %98, label %101

98:                                               ; preds = %95
  %99 = load i32, ptr %17, align 4, !tbaa !31
  %100 = call ptr @PMIx_Error_string(i32 noundef %99)
  call void (i32, ptr, ...) @pmix_output(i32 noundef 0, ptr noundef @.str.2, ptr noundef %100, ptr noundef @.str.1, i32 noundef 134)
  br label %101

101:                                              ; preds = %98, %95
  br label %102

102:                                              ; preds = %101
  br label %103

103:                                              ; preds = %102
  br label %104

104:                                              ; preds = %103, %88
  br label %105

105:                                              ; preds = %104, %72, %56
  call void @PMIx_Byte_object_destruct(ptr noundef %16)
  %106 = load ptr, ptr %11, align 8, !tbaa !10
  %107 = icmp ne ptr null, %106
  br i1 %107, label %108, label %112

108:                                              ; preds = %105
  %109 = load ptr, ptr %11, align 8, !tbaa !10
  %110 = load i32, ptr %17, align 4, !tbaa !31
  %111 = load ptr, ptr %12, align 8, !tbaa !10
  call void %109(i32 noundef %110, ptr noundef %111)
  br label %112

112:                                              ; preds = %108, %105
  br label %113

113:                                              ; preds = %112
  call void @llvm.lifetime.start.p0(i64 8, ptr %18) #13
  %114 = load ptr, ptr %14, align 8, !tbaa !10
  store ptr %114, ptr %18, align 8, !tbaa !10
  %115 = load i32, ptr getelementptr inbounds nuw (%struct.pmix_mca_base_framework_t, ptr @prte_state_base_framework, i32 0, i32 10), align 8, !tbaa !94
  %116 = icmp sgt i32 %115, 0
  br i1 %116, label %117, label %159

117:                                              ; preds = %113
  call void @llvm.lifetime.start.p0(i64 8, ptr %19) #13
  store double 0.000000e+00, ptr %19, align 8, !tbaa !97
  br label %118

118:                                              ; preds = %117
  call void @llvm.lifetime.start.p0(i64 16, ptr %20) #13
  %119 = call i32 @gettimeofday(ptr noundef %20, ptr noundef null) #13
  %120 = getelementptr inbounds nuw %struct.timeval, ptr %20, i32 0, i32 0
  %121 = load i64, ptr %120, align 8, !tbaa !99
  %122 = sitofp i64 %121 to double
  store double %122, ptr %19, align 8, !tbaa !97
  %123 = getelementptr inbounds nuw %struct.timeval, ptr %20, i32 0, i32 1
  %124 = load i64, ptr %123, align 8, !tbaa !101
  %125 = sitofp i64 %124 to double
  %126 = fdiv double %125, 1.000000e+06
  %127 = load double, ptr %19, align 8, !tbaa !97
  %128 = fadd double %127, %126
  store double %128, ptr %19, align 8, !tbaa !97
  call void @llvm.lifetime.end.p0(i64 16, ptr %20) #13
  br label %129

129:                                              ; preds = %118
  br label %130

130:                                              ; preds = %129
  %131 = load i32, ptr getelementptr inbounds nuw (%struct.pmix_mca_base_framework_t, ptr @prte_state_base_framework, i32 0, i32 11), align 4, !tbaa !102
  %132 = icmp sge i32 %131, 0
  br i1 %132, label %133, label %158

133:                                              ; preds = %130
  %134 = load i32, ptr getelementptr inbounds nuw (%struct.pmix_mca_base_framework_t, ptr @prte_state_base_framework, i32 0, i32 11), align 4, !tbaa !102
  %135 = icmp slt i32 %134, 64
  br i1 %135, label %136, label %158

136:                                              ; preds = %133
  %137 = load i32, ptr getelementptr inbounds nuw (%struct.pmix_mca_base_framework_t, ptr @prte_state_base_framework, i32 0, i32 11), align 4, !tbaa !102
  %138 = sext i32 %137 to i64
  %139 = getelementptr inbounds [0 x %struct.pmix_output_desc_t], ptr @pmix_output_info, i64 0, i64 %138
  %140 = getelementptr inbounds nuw %struct.pmix_output_desc_t, ptr %139, i32 0, i32 2
  %141 = load i32, ptr %140, align 4, !tbaa !103
  %142 = icmp sge i32 %141, 1
  br i1 %142, label %143, label %158

143:                                              ; preds = %136
  %144 = load i32, ptr getelementptr inbounds nuw (%struct.pmix_mca_base_framework_t, ptr @prte_state_base_framework, i32 0, i32 11), align 4, !tbaa !102
  %145 = call ptr @prte_util_print_name_args(ptr noundef @prte_process_info)
  %146 = load double, ptr %19, align 8, !tbaa !97
  %147 = load ptr, ptr %18, align 8, !tbaa !10
  %148 = icmp eq ptr null, %147
  br i1 %148, label %149, label %150

149:                                              ; preds = %143
  br label %155

150:                                              ; preds = %143
  %151 = load ptr, ptr %18, align 8, !tbaa !10
  %152 = getelementptr inbounds nuw %struct.prte_job_t, ptr %151, i32 0, i32 4
  %153 = getelementptr inbounds [256 x i8], ptr %152, i64 0, i64 0
  %154 = call ptr @prte_util_print_jobids(ptr noundef %153)
  br label %155

155:                                              ; preds = %150, %149
  %156 = phi ptr [ @.str.18, %149 ], [ %154, %150 ]
  %157 = call ptr @prte_job_state_to_str(i32 noundef 13)
  call void (i32, ptr, ...) @pmix_output(i32 noundef %144, ptr noundef @.str.26, ptr noundef %145, double noundef %146, ptr noundef %156, ptr noundef %157, ptr noundef @.str.1, i32 noundef 145)
  br label %158

158:                                              ; preds = %155, %136, %133, %130
  call void @llvm.lifetime.end.p0(i64 8, ptr %19) #13
  br label %159

159:                                              ; preds = %158, %113
  %160 = load ptr, ptr getelementptr inbounds nuw (%struct.prte_state_base_module_1_0_0_t, ptr @prte_state, i32 0, i32 2), align 8, !tbaa !105
  %161 = load ptr, ptr %18, align 8, !tbaa !10
  call void %160(ptr noundef %161, i32 noundef 13)
  call void @llvm.lifetime.end.p0(i64 8, ptr %18) #13
  br label %162

162:                                              ; preds = %159
  br label %163

163:                                              ; preds = %162
  br label %164

164:                                              ; preds = %163
  %165 = load ptr, ptr %13, align 8, !tbaa !10
  %166 = getelementptr inbounds nuw %struct.prte_odls_jcaddy_t, ptr %165, i32 0, i32 3
  %167 = getelementptr inbounds nuw %struct.prte_pmix_lock_t, ptr %166, i32 0, i32 0
  call void @pmix_mutex_lock(ptr noundef %167)
  %168 = load ptr, ptr %13, align 8, !tbaa !10
  %169 = getelementptr inbounds nuw %struct.prte_odls_jcaddy_t, ptr %168, i32 0, i32 3
  %170 = getelementptr inbounds nuw %struct.prte_pmix_lock_t, ptr %169, i32 0, i32 2
  store volatile i8 0, ptr %170, align 8, !tbaa !70
  call void @pmix_atomic_wmb()
  %171 = load ptr, ptr %13, align 8, !tbaa !10
  %172 = getelementptr inbounds nuw %struct.prte_odls_jcaddy_t, ptr %171, i32 0, i32 3
  %173 = getelementptr inbounds nuw %struct.prte_pmix_lock_t, ptr %172, i32 0, i32 1
  %174 = call i32 @pthread_cond_broadcast(ptr noundef %173) #13
  %175 = load ptr, ptr %13, align 8, !tbaa !10
  %176 = getelementptr inbounds nuw %struct.prte_odls_jcaddy_t, ptr %175, i32 0, i32 3
  %177 = getelementptr inbounds nuw %struct.prte_pmix_lock_t, ptr %176, i32 0, i32 0
  call void @pmix_mutex_unlock(ptr noundef %177)
  br label %178

178:                                              ; preds = %164
  br label %179

179:                                              ; preds = %178
  call void @llvm.lifetime.end.p0(i64 4, ptr %17) #13
  call void @llvm.lifetime.end.p0(i64 16, ptr %16) #13
  call void @llvm.lifetime.end.p0(i64 40, ptr %15) #13
  call void @llvm.lifetime.end.p0(i64 8, ptr %14) #13
  call void @llvm.lifetime.end.p0(i64 8, ptr %13) #13
  ret void
}