; Function Attrs: nounwind uwtable
define internal void @setup_cbfunc(i32 %0, ptr noundef %1, i64 noundef %2, ptr noundef %3, ptr noundef readonly captures(address_is_null) %4, ptr noundef %5) #0 {
  %7 = alloca i64, align 8
  %8 = alloca %struct.pmix_data_buffer, align 8
  %9 = alloca %struct.pmix_byte_object, align 8
  %10 = alloca %struct.timeval, align 8
  store i64 %2, ptr %7, align 8, !tbaa !77
  %11 = load ptr, ptr %3, align 8, !tbaa !62
  call void @llvm.lifetime.start.p0(i64 40, ptr nonnull %8) #16
  call void @llvm.lifetime.start.p0(i64 16, ptr nonnull %9) #16
  %12 = getelementptr inbounds nuw i8, ptr %3, i64 8
  %13 = load ptr, ptr %12, align 8, !tbaa !55
  %.not = icmp eq ptr %13, null
  br i1 %.not, label %17, label %14

14:                                               ; preds = %6
  %15 = getelementptr inbounds nuw i8, ptr %3, i64 16
  %16 = load i64, ptr %15, align 8, !tbaa !61
  tail call void @PMIx_Info_free(ptr noundef nonnull %13, i64 noundef %16) #16
  store ptr null, ptr %12, align 8, !tbaa !55
  br label %17

17:                                               ; preds = %14, %6
  call void @PMIx_Byte_object_construct(ptr noundef nonnull %9) #16
  %.not46 = icmp eq ptr %1, null
  br i1 %.not46, label %34, label %18

18:                                               ; preds = %17
  call void @PMIx_Data_buffer_construct(ptr noundef nonnull %8) #16
  %19 = call i32 @PMIx_Data_pack(ptr noundef null, ptr noundef nonnull %8, ptr noundef nonnull %7, i32 noundef 1, i16 noundef zeroext 4) #16
  switch i32 %19, label %20 [
    i32 0, label %23
    i32 -2, label %22
  ]

20:                                               ; preds = %18
  %21 = call ptr @PMIx_Error_string(i32 noundef %19) #16
  call void (i32, ptr, ...) @pmix_output(i32 noundef 0, ptr noundef nonnull @.str.2, ptr noundef %21, ptr noundef nonnull @.str.1, i32 noundef 116) #16
  br label %22

22:                                               ; preds = %18, %20
  call void @PMIx_Data_buffer_destruct(ptr noundef nonnull %8) #16
  br label %39

23:                                               ; preds = %18
  %24 = load i64, ptr %7, align 8, !tbaa !77
  %25 = trunc i64 %24 to i32
  %26 = call i32 @PMIx_Data_pack(ptr noundef null, ptr noundef nonnull %8, ptr noundef nonnull %1, i32 noundef %25, i16 noundef zeroext 24) #16
  switch i32 %26, label %27 [
    i32 0, label %30
    i32 -2, label %29
  ]

27:                                               ; preds = %23
  %28 = call ptr @PMIx_Error_string(i32 noundef %26) #16
  call void (i32, ptr, ...) @pmix_output(i32 noundef 0, ptr noundef nonnull @.str.2, ptr noundef %28, ptr noundef nonnull @.str.1, i32 noundef 121) #16
  br label %29

29:                                               ; preds = %23, %27
  call void @PMIx_Data_buffer_destruct(ptr noundef nonnull %8) #16
  br label %39

30:                                               ; preds = %23
  %31 = call i32 @PMIx_Data_unload(ptr noundef nonnull %8, ptr noundef nonnull %9) #16
  switch i32 %31, label %32 [
    i32 -2, label %34
    i32 0, label %34
  ]

32:                                               ; preds = %30
  %33 = call ptr @PMIx_Error_string(i32 noundef %31) #16
  call void (i32, ptr, ...) @pmix_output(i32 noundef 0, ptr noundef nonnull @.str.2, ptr noundef %33, ptr noundef nonnull @.str.1, i32 noundef 128) #16
  br label %34

34:                                               ; preds = %30, %30, %32, %17
  %35 = getelementptr inbounds nuw i8, ptr %11, i64 1064
  %36 = call i32 @PMIx_Data_pack(ptr noundef null, ptr noundef nonnull %35, ptr noundef nonnull %9, i32 noundef 1, i16 noundef zeroext 27) #16
  switch i32 %36, label %37 [
    i32 -2, label %39
    i32 0, label %39
  ]

37:                                               ; preds = %34
  %38 = call ptr @PMIx_Error_string(i32 noundef %36) #16
  call void (i32, ptr, ...) @pmix_output(i32 noundef 0, ptr noundef nonnull @.str.2, ptr noundef %38, ptr noundef nonnull @.str.1, i32 noundef 134) #16
  br label %39

39:                                               ; preds = %34, %34, %37, %29, %22
  %.0 = phi i32 [ %19, %22 ], [ %26, %29 ], [ %36, %37 ], [ %36, %34 ], [ %36, %34 ]
  call void @PMIx_Byte_object_destruct(ptr noundef nonnull %9) #16
  %.not51 = icmp eq ptr %4, null
  br i1 %.not51, label %41, label %40

40:                                               ; preds = %39
  call void %4(i32 noundef %.0, ptr noundef %5) #16
  br label %41

41:                                               ; preds = %39, %40
  %42 = load i32, ptr getelementptr inbounds nuw (i8, ptr @prte_state_base_framework, i64 72), align 8, !tbaa !78
  %43 = icmp sgt i32 %42, 0
  br i1 %43, label %44, label %68

44:                                               ; preds = %41
  call void @llvm.lifetime.start.p0(i64 16, ptr nonnull %10) #16
  %45 = call i32 @gettimeofday(ptr noundef nonnull %10, ptr noundef null) #16
  %46 = load i64, ptr %10, align 8, !tbaa !81
  %47 = sitofp i64 %46 to double
  %48 = getelementptr inbounds nuw i8, ptr %10, i64 8
  %49 = load i64, ptr %48, align 8, !tbaa !83
  %50 = sitofp i64 %49 to double
  %51 = fdiv double %50, 1.000000e+06
  %52 = fadd double %51, %47
  call void @llvm.lifetime.end.p0(i64 16, ptr nonnull %10) #16
  %53 = load i32, ptr getelementptr inbounds nuw (i8, ptr @prte_state_base_framework, i64 76), align 4, !tbaa !84
  %or.cond = icmp ult i32 %53, 64
  br i1 %or.cond, label %54, label %68

54:                                               ; preds = %44
  %55 = zext nneg i32 %53 to i64
  %56 = getelementptr inbounds nuw [0 x %struct.pmix_output_desc_t], ptr @pmix_output_info, i64 0, i64 %55, i32 2
  %57 = load i32, ptr %56, align 4, !tbaa !85
  %58 = icmp sgt i32 %57, 0
  br i1 %58, label %59, label %68

59:                                               ; preds = %54
  %60 = call ptr @prte_util_print_name_args(ptr noundef nonnull @prte_process_info) #16
  %61 = icmp eq ptr %11, null
  br i1 %61, label %65, label %62

62:                                               ; preds = %59
  %63 = getelementptr inbounds nuw i8, ptr %11, i64 168
  %64 = call ptr @prte_util_print_jobids(ptr noundef nonnull %63) #16
  br label %65

65:                                               ; preds = %59, %62
  %66 = phi ptr [ %64, %62 ], [ @.str.18, %59 ]
  %67 = call ptr @prte_job_state_to_str(i32 noundef 13) #16
  call void (i32, ptr, ...) @pmix_output(i32 noundef %53, ptr noundef nonnull @.str.26, ptr noundef %60, double noundef %52, ptr noundef %66, ptr noundef %67, ptr noundef nonnull @.str.1, i32 noundef 145) #16
  br label %68

68:                                               ; preds = %44, %54, %65, %41
  %69 = load ptr, ptr getelementptr inbounds nuw (i8, ptr @prte_state, i64 16), align 8, !tbaa !87
  call void %69(ptr noundef %11, i32 noundef 13) #16
  %70 = getelementptr inbounds nuw i8, ptr %3, i64 144
  %71 = call i32 @pthread_mutex_lock(ptr noundef nonnull %70) #16
  %72 = getelementptr inbounds nuw i8, ptr %3, i64 232
  store volatile i8 0, ptr %72, align 8, !tbaa !69
  fence release
  %73 = getelementptr inbounds nuw i8, ptr %3, i64 184
  %74 = call i32 @pthread_cond_broadcast(ptr noundef nonnull %73) #16
  %75 = call i32 @pthread_mutex_unlock(ptr noundef nonnull %70) #16
  call void @llvm.lifetime.end.p0(i64 16, ptr nonnull %9) #16
  call void @llvm.lifetime.end.p0(i64 40, ptr nonnull %8) #16
  ret void
}